target datalayout = "e-m:e-p270:32:32-p271:32:32-p272:64:64-i64:64-i128:128-f80:128-n8:16:32:64-S128"
target triple = "x86_64-unknown-linux-gnu"

%struct.sharedObjectsStruct = type { ptr, ptr, ptr, ptr, ptr, ptr, ptr, ptr, [4 x ptr], [4 x ptr], [4 x ptr], [4 x ptr], ptr, ptr, ptr, ptr, ptr, ptr, ptr, ptr, ptr, ptr, ptr, ptr, ptr, ptr, ptr, ptr, ptr, ptr, ptr, ptr, ptr, ptr, ptr, ptr, ptr, ptr, ptr, ptr, ptr, ptr, ptr, ptr, ptr, ptr, ptr, ptr, ptr, ptr, ptr, ptr, ptr, ptr, ptr, ptr, ptr, ptr, ptr, ptr, ptr, ptr, ptr, ptr, ptr, ptr, ptr, ptr, ptr, ptr, ptr, ptr, ptr, ptr, ptr, ptr, ptr, ptr, ptr, ptr, ptr, ptr, ptr, ptr, ptr, [10 x ptr], [10000 x ptr], [32 x ptr], [32 x ptr], [32 x ptr], [32 x ptr], ptr, ptr }
%struct.GeoHashBits = type { i64, i8 }
%struct.redisObject = type { i32, i32, ptr }
%struct.client = type { i64, i64, ptr, i32, ptr, ptr, ptr, ptr, ptr, i64, i64, i32, ptr, i32, i32, ptr, i64, ptr, ptr, ptr, ptr, i32, i32, i64, ptr, i64, ptr, i64, i64, i64, i32, ptr, i64, i64, i32, i32, i32, i32, i64, i64, ptr, i64, i64, i64, i64, i64, i64, i64, i64, [41 x i8], i32, ptr, i32, i32, %struct.multiState, %struct.blockingState, i64, ptr, ptr, ptr, ptr, ptr, ptr, ptr, ptr, ptr, ptr, ptr, ptr, ptr, ptr, i64, ptr, i64, i32, ptr, ptr, ptr, i64, %struct.listNode, i64, i64, i32, i64, ptr }
%struct.multiState = type { ptr, i32, i32, i32, i64, i32 }
%struct.blockingState = type { i32, i64, i32, ptr, i32, i32, i64, ptr, ptr }
%struct.listNode = type { ptr, ptr, ptr }

@.str.1 = private unnamed_addr constant [2 x i8] c"m\00", align 1
@.str.2 = private unnamed_addr constant [3 x i8] c"km\00", align 1
@.str.3 = private unnamed_addr constant [3 x i8] c"ft\00", align 1
@.str.4 = private unnamed_addr constant [3 x i8] c"mi\00", align 1
@.str.5 = private unnamed_addr constant [52 x i8] c"unsupported unit provided. please use M, KM, FT, MI\00", align 1
@shared = external global %struct.sharedObjectsStruct, align 8

; Function Attrs: nounwind uwtable
define dso_local i32 @decodeGeohash(double noundef %bits, ptr noundef %xy) #0 {
entry:
  %bits.addr = alloca double, align 8
  %xy.addr = alloca ptr, align 8
  %hash = alloca %struct.GeoHashBits, align 8
  store double %bits, ptr %bits.addr, align 8
  store ptr %xy, ptr %xy.addr, align 8
  %bits1 = getelementptr inbounds %struct.GeoHashBits, ptr %hash, i32 0, i32 0
  %0 = load double, ptr %bits.addr, align 8
  %conv = fptoui double %0 to i64
  store i64 %conv, ptr %bits1, align 8
  %step = getelementptr inbounds %struct.GeoHashBits, ptr %hash, i32 0, i32 1
  store i8 26, ptr %step, align 8
  %1 = load ptr, ptr %xy.addr, align 8
  %2 = getelementptr inbounds { i64, i8 }, ptr %hash, i32 0, i32 0
  %3 = load i64, ptr %2, align 8
  %4 = getelementptr inbounds { i64, i8 }, ptr %hash, i32 0, i32 1
  %5 = load i8, ptr %4, align 8
  %call = call i32 @geohashDecodeToLongLatWGS84(i64 %3, i8 %5, ptr noundef %1)
  ret i32 %call
}

; Function Attrs: nounwind uwtable
define dso_local double @extractUnitOrReply(ptr noundef %c, ptr noundef %unit) #0 {
entry:
  %retval = alloca double, align 8
  %c.addr = alloca ptr, align 8
  %unit.addr = alloca ptr, align 8
  %u = alloca ptr, align 8
  store ptr %c, ptr %c.addr, align 8
  store ptr %unit, ptr %unit.addr, align 8
  %0 = load ptr, ptr %unit.addr, align 8
  %ptr = getelementptr inbounds %struct.redisObject, ptr %0, i32 0, i32 2
  %1 = load ptr, ptr %ptr, align 8
  store ptr %1, ptr %u, align 8
  %2 = load ptr, ptr %u, align 8
  %call = call i32 @strcasecmp(ptr noundef %2, ptr noundef @.str.1) #11
  %tobool = icmp ne i32 %call, 0
  br i1 %tobool, label %if.else, label %if.then

if.then:                                          ; preds = %entry
  store double 1.000000e+00, ptr %retval, align 8
  br label %return

if.else:                                          ; preds = %entry
  %3 = load ptr, ptr %u, align 8
  %call1 = call i32 @strcasecmp(ptr noundef %3, ptr noundef @.str.2) #11
  %tobool2 = icmp ne i32 %call1, 0
  br i1 %tobool2, label %if.else4, label %if.then3

if.then3:                                         ; preds = %if.else
  store double 1.000000e+03, ptr %retval, align 8
  br label %return

if.else4:                                         ; preds = %if.else
  %4 = load ptr, ptr %u, align 8
  %call5 = call i32 @strcasecmp(ptr noundef %4, ptr noundef @.str.3) #11
  %tobool6 = icmp ne i32 %call5, 0
  br i1 %tobool6, label %if.else8, label %if.then7

if.then7:                                         ; preds = %if.else4
  store double 3.048000e-01, ptr %retval, align 8
  br label %return

if.else8:                                         ; preds = %if.else4
  %5 = load ptr, ptr %u, align 8
  %call9 = call i32 @strcasecmp(ptr noundef %5, ptr noundef @.str.4) #11
  %tobool10 = icmp ne i32 %call9, 0
  br i1 %tobool10, label %if.else12, label %if.then11

if.then11:                                        ; preds = %if.else8
  store double 1.609340e+03, ptr %retval, align 8
  br label %return

if.else12:                                        ; preds = %if.else8
  %6 = load ptr, ptr %c.addr, align 8
  call void @addReplyError(ptr noundef %6, ptr noundef @.str.5)
  store double -1.000000e+00, ptr %retval, align 8
  br label %return

return:                                           ; preds = %if.else12, %if.then11, %if.then7, %if.then3, %if.then
  %7 = load double, ptr %retval, align 8
  ret double %7
}

; Function Attrs: nounwind uwtable
define dso_local void @geodistCommand(ptr noundef %c) #0 {
entry:
  %c.addr = alloca ptr, align 8
  %to_meter = alloca double, align 8
  %zobj = alloca ptr, align 8
  %score1 = alloca double, align 8
  %score2 = alloca double, align 8
  %xyxy = alloca [4 x double], align 16
  store ptr %c, ptr %c.addr, align 8
  store double 1.000000e+00, ptr %to_meter, align 8
  %0 = load ptr, ptr %c.addr, align 8
  %argc = getelementptr inbounds %struct.client, ptr %0, i32 0, i32 11
  %1 = load i32, ptr %argc, align 8
  %cmp = icmp eq i32 %1, 5
  br i1 %cmp, label %if.then, label %if.else

if.then:                                          ; preds = %entry
  %2 = load ptr, ptr %c.addr, align 8
  %3 = load ptr, ptr %c.addr, align 8
  %argv = getelementptr inbounds %struct.client, ptr %3, i32 0, i32 12
  %4 = load ptr, ptr %argv, align 8
  %arrayidx = getelementptr inbounds ptr, ptr %4, i64 4
  %5 = load ptr, ptr %arrayidx, align 8
  %call = call double @extractUnitOrReply(ptr noundef %2, ptr noundef %5)
  store double %call, ptr %to_meter, align 8
  %6 = load double, ptr %to_meter, align 8
  %cmp1 = fcmp olt double %6, 0.000000e+00
  br i1 %cmp1, label %if.then2, label %if.end

if.then2:                                         ; preds = %if.then
  br label %if.end41

if.end:                                           ; preds = %if.then
  br label %if.end7

if.else:                                          ; preds = %entry
  %7 = load ptr, ptr %c.addr, align 8
  %argc3 = getelementptr inbounds %struct.client, ptr %7, i32 0, i32 11
  %8 = load i32, ptr %argc3, align 8
  %cmp4 = icmp sgt i32 %8, 5
  br i1 %cmp4, label %if.then5, label %if.end6

if.then5:                                         ; preds = %if.else
  %9 = load ptr, ptr %c.addr, align 8
  %10 = load ptr, ptr getelementptr inbounds (%struct.sharedObjectsStruct, ptr @shared, i32 0, i32 15), align 8
  call void @addReplyErrorObject(ptr noundef %9, ptr noundef %10)
  br label %if.end41

if.end6:                                          ; preds = %if.else
  br label %if.end7

if.end7:                                          ; preds = %if.end6, %if.end
  store ptr null, ptr %zobj, align 8
  %11 = load ptr, ptr %c.addr, align 8
  %12 = load ptr, ptr %c.addr, align 8
  %argv8 = getelementptr inbounds %struct.client, ptr %12, i32 0, i32 12
  %13 = load ptr, ptr %argv8, align 8
  %arrayidx9 = getelementptr inbounds ptr, ptr %13, i64 1
  %14 = load ptr, ptr %arrayidx9, align 8
  %15 = load ptr, ptr %c.addr, align 8
  %resp = getelementptr inbounds %struct.client, ptr %15, i32 0, i32 3
  %16 = load i32, ptr %resp, align 8
  %idxprom = sext i32 %16 to i64
  %arrayidx10 = getelementptr inbounds [4 x ptr], ptr getelementptr inbounds (%struct.sharedObjectsStruct, ptr @shared, i32 0, i32 8), i64 0, i64 %idxprom
  %17 = load ptr, ptr %arrayidx10, align 8
  %call11 = call ptr @lookupKeyReadOrReply(ptr noundef %11, ptr noundef %14, ptr noundef %17)
  store ptr %call11, ptr %zobj, align 8
  %cmp12 = icmp eq ptr %call11, null
  br i1 %cmp12, label %if.then14, label %lor.lhs.false

lor.lhs.false:                                    ; preds = %if.end7
  %18 = load ptr, ptr %c.addr, align 8
  %19 = load ptr, ptr %zobj, align 8
  %call13 = call i32 @checkType(ptr noundef %18, ptr noundef %19, i32 noundef 3)
  %tobool = icmp ne i32 %call13, 0
  br i1 %tobool, label %if.then14, label %if.end15

if.then14:                                        ; preds = %lor.lhs.false, %if.end7
  br label %if.end41

if.end15:                                         ; preds = %lor.lhs.false
  %20 = load ptr, ptr %zobj, align 8
  %21 = load ptr, ptr %c.addr, align 8
  %argv16 = getelementptr inbounds %struct.client, ptr %21, i32 0, i32 12
  %22 = load ptr, ptr %argv16, align 8
  %arrayidx17 = getelementptr inbounds ptr, ptr %22, i64 2
  %23 = load ptr, ptr %arrayidx17, align 8
  %ptr = getelementptr inbounds %struct.redisObject, ptr %23, i32 0, i32 2
  %24 = load ptr, ptr %ptr, align 8
  %call18 = call i32 @zsetScore(ptr noundef %20, ptr noundef %24, ptr noundef %score1)
  %cmp19 = icmp eq i32 %call18, -1
  br i1 %cmp19, label %if.then26, label %lor.lhs.false20

lor.lhs.false20:                                  ; preds = %if.end15
  %25 = load ptr, ptr %zobj, align 8
  %26 = load ptr, ptr %c.addr, align 8
  %argv21 = getelementptr inbounds %struct.client, ptr %26, i32 0, i32 12
  %27 = load ptr, ptr %argv21, align 8
  %arrayidx22 = getelementptr inbounds ptr, ptr %27, i64 3
  %28 = load ptr, ptr %arrayidx22, align 8
  %ptr23 = getelementptr inbounds %struct.redisObject, ptr %28, i32 0, i32 2
  %29 = load ptr, ptr %ptr23, align 8
  %call24 = call i32 @zsetScore(ptr noundef %25, ptr noundef %29, ptr noundef %score2)
  %cmp25 = icmp eq i32 %call24, -1
  br i1 %cmp25, label %if.then26, label %if.end27

if.then26:                                        ; preds = %lor.lhs.false20, %if.end15
  %30 = load ptr, ptr %c.addr, align 8
  call void @addReplyNull(ptr noundef %30)
  br label %if.end41

if.end27:                                         ; preds = %lor.lhs.false20
  %31 = load double, ptr %score1, align 8
  %arraydecay = getelementptr inbounds [4 x double], ptr %xyxy, i64 0, i64 0
  %call28 = call i32 @decodeGeohash(double noundef %31, ptr noundef %arraydecay)
  %tobool29 = icmp ne i32 %call28, 0
  br i1 %tobool29, label %lor.lhs.false30, label %if.then34

lor.lhs.false30:                                  ; preds = %if.end27
  %32 = load double, ptr %score2, align 8
  %arraydecay31 = getelementptr inbounds [4 x double], ptr %xyxy, i64 0, i64 0
  %add.ptr = getelementptr inbounds double, ptr %arraydecay31, i64 2
  %call32 = call i32 @decodeGeohash(double noundef %32, ptr noundef %add.ptr)
  %tobool33 = icmp ne i32 %call32, 0
  br i1 %tobool33, label %if.else35, label %if.then34

if.then34:                                        ; preds = %lor.lhs.false30, %if.end27
  %33 = load ptr, ptr %c.addr, align 8
  call void @addReplyNull(ptr noundef %33)
  br label %if.end41

if.else35:                                        ; preds = %lor.lhs.false30
  %34 = load ptr, ptr %c.addr, align 8
  %arrayidx36 = getelementptr inbounds [4 x double], ptr %xyxy, i64 0, i64 0
  %35 = load double, ptr %arrayidx36, align 16
  %arrayidx37 = getelementptr inbounds [4 x double], ptr %xyxy, i64 0, i64 1
  %36 = load double, ptr %arrayidx37, align 8
  %arrayidx38 = getelementptr inbounds [4 x double], ptr %xyxy, i64 0, i64 2
  %37 = load double, ptr %arrayidx38, align 16
  %arrayidx39 = getelementptr inbounds [4 x double], ptr %xyxy, i64 0, i64 3
  %38 = load double, ptr %arrayidx39, align 8
  %call40 = call double @geohashGetDistance(double noundef %35, double noundef %36, double noundef %37, double noundef %38)
  %39 = load double, ptr %to_meter, align 8
  %div = fdiv double %call40, %39
  call void @addReplyDoubleDistance(ptr noundef %34, double noundef %div)
  br label %if.end41

if.end41:                                         ; preds = %if.else35, %if.then34, %if.then26, %if.then14, %if.then5, %if.then2
  ret void
}