; Function Attrs: nounwind uwtable
define dso_local void @geodistCommand(ptr noundef %c) local_unnamed_addr #0 {
entry:
  %score1 = alloca double, align 8
  %score2 = alloca double, align 8
  %xyxy = alloca [4 x double], align 16
  %argc = getelementptr inbounds i8, ptr %c, i64 88
  %0 = load i32, ptr %argc, align 8
  %cmp = icmp eq i32 %0, 5
  br i1 %cmp, label %if.then, label %if.else

if.then:                                          ; preds = %entry
  %argv = getelementptr inbounds i8, ptr %c, i64 96
  %1 = load ptr, ptr %argv, align 8
  %arrayidx = getelementptr inbounds i8, ptr %1, i64 32
  %2 = load ptr, ptr %arrayidx, align 8
  %ptr.i = getelementptr inbounds i8, ptr %2, i64 8
  %3 = load ptr, ptr %ptr.i, align 8
  %call.i = tail call i32 @strcasecmp(ptr noundef %3, ptr noundef nonnull @.str.1) #15
  %tobool.not.i = icmp eq i32 %call.i, 0
  br i1 %tobool.not.i, label %if.end7, label %if.else.i

if.else.i:                                        ; preds = %if.then
  %call1.i = tail call i32 @strcasecmp(ptr noundef %3, ptr noundef nonnull @.str.2) #15
  %tobool2.not.i = icmp eq i32 %call1.i, 0
  br i1 %tobool2.not.i, label %if.end7, label %if.else4.i

if.else4.i:                                       ; preds = %if.else.i
  %call5.i = tail call i32 @strcasecmp(ptr noundef %3, ptr noundef nonnull @.str.3) #15
  %tobool6.not.i = icmp eq i32 %call5.i, 0
  br i1 %tobool6.not.i, label %if.end7, label %if.else8.i

if.else8.i:                                       ; preds = %if.else4.i
  %call9.i = tail call i32 @strcasecmp(ptr noundef %3, ptr noundef nonnull @.str.4) #15
  %tobool10.not.i = icmp eq i32 %call9.i, 0
  br i1 %tobool10.not.i, label %if.end7, label %extractUnitOrReply.exit

extractUnitOrReply.exit:                          ; preds = %if.else8.i
  tail call void @addReplyError(ptr noundef nonnull %c, ptr noundef nonnull @.str.5) #14
  br label %if.end41

if.else:                                          ; preds = %entry
  %cmp4 = icmp sgt i32 %0, 5
  br i1 %cmp4, label %if.then5, label %if.else.if.end7_crit_edge

if.else.if.end7_crit_edge:                        ; preds = %if.else
  %argv8.phi.trans.insert = getelementptr inbounds i8, ptr %c, i64 96
  %.pre = load ptr, ptr %argv8.phi.trans.insert, align 8
  br label %if.end7

if.then5:                                         ; preds = %if.else
  %4 = load ptr, ptr getelementptr inbounds (%struct.sharedObjectsStruct, ptr @shared, i64 0, i32 15), align 8
  tail call void @addReplyErrorObject(ptr noundef nonnull %c, ptr noundef %4) #14
  br label %if.end41

if.end7:                                          ; preds = %if.else.if.end7_crit_edge, %if.else8.i, %if.else4.i, %if.else.i, %if.then
  %5 = phi ptr [ %.pre, %if.else.if.end7_crit_edge ], [ %1, %if.else8.i ], [ %1, %if.else4.i ], [ %1, %if.else.i ], [ %1, %if.then ]
  %to_meter.0 = phi double [ 1.000000e+00, %if.else.if.end7_crit_edge ], [ 1.609340e+03, %if.else8.i ], [ 3.048000e-01, %if.else4.i ], [ 1.000000e+03, %if.else.i ], [ 1.000000e+00, %if.then ]
  %argv8 = getelementptr inbounds i8, ptr %c, i64 96
  %arrayidx9 = getelementptr inbounds i8, ptr %5, i64 8
  %6 = load ptr, ptr %arrayidx9, align 8
  %resp = getelementptr inbounds i8, ptr %c, i64 24
  %7 = load i32, ptr %resp, align 8
  %idxprom = sext i32 %7 to i64
  %arrayidx10 = getelementptr inbounds %struct.sharedObjectsStruct, ptr @shared, i64 0, i32 8, i64 %idxprom
  %8 = load ptr, ptr %arrayidx10, align 8
  %call11 = tail call ptr @lookupKeyReadOrReply(ptr noundef nonnull %c, ptr noundef %6, ptr noundef %8) #14
  %cmp12 = icmp eq ptr %call11, null
  br i1 %cmp12, label %if.end41, label %lor.lhs.false

lor.lhs.false:                                    ; preds = %if.end7
  %call13 = tail call i32 @checkType(ptr noundef nonnull %c, ptr noundef nonnull %call11, i32 noundef 3) #14
  %tobool.not = icmp eq i32 %call13, 0
  br i1 %tobool.not, label %if.end15, label %if.end41

if.end15:                                         ; preds = %lor.lhs.false
  %9 = load ptr, ptr %argv8, align 8
  %arrayidx17 = getelementptr inbounds i8, ptr %9, i64 16
  %10 = load ptr, ptr %arrayidx17, align 8
  %ptr = getelementptr inbounds i8, ptr %10, i64 8
  %11 = load ptr, ptr %ptr, align 8
  %call18 = call i32 @zsetScore(ptr noundef nonnull %call11, ptr noundef %11, ptr noundef nonnull %score1) #14
  %cmp19 = icmp eq i32 %call18, -1
  br i1 %cmp19, label %if.then26, label %lor.lhs.false20

lor.lhs.false20:                                  ; preds = %if.end15
  %12 = load ptr, ptr %argv8, align 8
  %arrayidx22 = getelementptr inbounds i8, ptr %12, i64 24
  %13 = load ptr, ptr %arrayidx22, align 8
  %ptr23 = getelementptr inbounds i8, ptr %13, i64 8
  %14 = load ptr, ptr %ptr23, align 8
  %call24 = call i32 @zsetScore(ptr noundef nonnull %call11, ptr noundef %14, ptr noundef nonnull %score2) #14
  %cmp25 = icmp eq i32 %call24, -1
  br i1 %cmp25, label %if.then26, label %if.end27

if.then26:                                        ; preds = %lor.lhs.false20, %if.end15
  call void @addReplyNull(ptr noundef nonnull %c) #14
  br label %if.end41

if.end27:                                         ; preds = %lor.lhs.false20
  %15 = load double, ptr %score1, align 8
  %conv.i = fptoui double %15 to i64
  %call.i17 = call i32 @geohashDecodeToLongLatWGS84(i64 %conv.i, i8 26, ptr noundef nonnull %xyxy) #14
  %tobool29.not = icmp eq i32 %call.i17, 0
  br i1 %tobool29.not, label %if.then34, label %lor.lhs.false30

lor.lhs.false30:                                  ; preds = %if.end27
  %16 = load double, ptr %score2, align 8
  %add.ptr = getelementptr inbounds i8, ptr %xyxy, i64 16
  %conv.i18 = fptoui double %16 to i64
  %call.i19 = call i32 @geohashDecodeToLongLatWGS84(i64 %conv.i18, i8 26, ptr noundef nonnull %add.ptr) #14
  %tobool33.not = icmp eq i32 %call.i19, 0
  br i1 %tobool33.not, label %if.then34, label %if.else35

if.then34:                                        ; preds = %lor.lhs.false30, %if.end27
  call void @addReplyNull(ptr noundef nonnull %c) #14
  br label %if.end41

if.else35:                                        ; preds = %lor.lhs.false30
  %17 = load double, ptr %xyxy, align 16
  %arrayidx37 = getelementptr inbounds i8, ptr %xyxy, i64 8
  %18 = load double, ptr %arrayidx37, align 8
  %19 = load double, ptr %add.ptr, align 16
  %arrayidx39 = getelementptr inbounds i8, ptr %xyxy, i64 24
  %20 = load double, ptr %arrayidx39, align 8
  %call40 = call double @geohashGetDistance(double noundef %17, double noundef %18, double noundef %19, double noundef %20) #14
  %div = fdiv double %call40, %to_meter.0
  call void @addReplyDoubleDistance(ptr noundef nonnull %c, double noundef %div)
  br label %if.end41

if.end41:                                         ; preds = %extractUnitOrReply.exit, %if.end7, %lor.lhs.false, %if.else35, %if.then34, %if.then26, %if.then5
  ret void
}